target datalayout = "e-m:e-p270:32:32-p271:32:32-p272:64:64-i64:64-i128:128-f80:128-n8:16:32:64-S128"
target triple = "x86_64-pc-linux-gnu"

%struct._object = type { %union.anon, ptr }
%union.anon = type { i64 }
%struct.PyVarObject = type { %struct._object, i64 }
%struct._typeobject = type { %struct.PyVarObject, ptr, i64, i64, ptr, i64, ptr, ptr, ptr, ptr, ptr, ptr, ptr, ptr, ptr, ptr, ptr, ptr, ptr, i64, ptr, ptr, ptr, ptr, i64, ptr, ptr, ptr, ptr, ptr, ptr, ptr, ptr, ptr, i64, ptr, ptr, ptr, ptr, ptr, ptr, ptr, ptr, ptr, ptr, ptr, i32, ptr, ptr, i8, i16 }
%struct.Py_buffer = type { ptr, ptr, i64, i64, i32, i32, ptr, ptr, ptr, ptr, ptr }

@.str.9 = private unnamed_addr constant [13 x i8] c"utf_8_decode\00", align 1
@_Py_NoneStruct = external global %struct._object, align 8
@PyExc_ValueError = external global ptr, align 8
@.str.44 = private unnamed_addr constant [24 x i8] c"embedded null character\00", align 1
@.str.52 = private unnamed_addr constant [11 x i8] c"argument 2\00", align 1
@.str.53 = private unnamed_addr constant [12 x i8] c"str or None\00", align 1
@.str.55 = private unnamed_addr constant [3 x i8] c"Nn\00", align 1

; Function Attrs: nounwind uwtable
define internal ptr @codec_tuple(ptr noundef %0, i64 noundef %1) #0 {
  %3 = alloca ptr, align 8
  %4 = alloca ptr, align 8
  %5 = alloca i64, align 8
  store ptr %0, ptr %4, align 8, !tbaa !4
  store i64 %1, ptr %5, align 8, !tbaa !11
  %6 = load ptr, ptr %4, align 8, !tbaa !4
  %7 = icmp eq ptr %6, null
  br i1 %7, label %8, label %9

8:                                                ; preds = %2
  store ptr null, ptr %3, align 8
  br label %13

9:                                                ; preds = %2
  %10 = load ptr, ptr %4, align 8, !tbaa !4
  %11 = load i64, ptr %5, align 8, !tbaa !11
  %12 = call ptr (ptr, ...) @Py_BuildValue(ptr noundef @.str.55, ptr noundef %10, i64 noundef %11)
  store ptr %12, ptr %3, align 8
  br label %13

13:                                               ; preds = %9, %8
  %14 = load ptr, ptr %3, align 8
  ret ptr %14
}

; Function Attrs: nounwind uwtable
define internal ptr @_codecs_utf_8_decode_impl(ptr noundef %0, ptr noundef %1, ptr noundef %2, i32 noundef %3) #0 {
  %5 = alloca ptr, align 8
  %6 = alloca ptr, align 8
  %7 = alloca ptr, align 8
  %8 = alloca i32, align 4
  %9 = alloca i64, align 8
  %10 = alloca ptr, align 8
  store ptr %0, ptr %5, align 8, !tbaa !4
  store ptr %1, ptr %6, align 8, !tbaa !31
  store ptr %2, ptr %7, align 8, !tbaa !9
  store i32 %3, ptr %8, align 4, !tbaa !19
  call void @llvm.lifetime.start.p0(i64 8, ptr %9) #6
  %11 = load ptr, ptr %6, align 8, !tbaa !31
  %12 = getelementptr inbounds nuw %struct.Py_buffer, ptr %11, i32 0, i32 2
  %13 = load i64, ptr %12, align 8, !tbaa !37
  store i64 %13, ptr %9, align 8, !tbaa !11
  call void @llvm.lifetime.start.p0(i64 8, ptr %10) #6
  %14 = load ptr, ptr %6, align 8, !tbaa !31
  %15 = getelementptr inbounds nuw %struct.Py_buffer, ptr %14, i32 0, i32 0
  %16 = load ptr, ptr %15, align 8, !tbaa !36
  %17 = load ptr, ptr %6, align 8, !tbaa !31
  %18 = getelementptr inbounds nuw %struct.Py_buffer, ptr %17, i32 0, i32 2
  %19 = load i64, ptr %18, align 8, !tbaa !37
  %20 = load ptr, ptr %7, align 8, !tbaa !9
  %21 = load i32, ptr %8, align 4, !tbaa !19
  %22 = icmp ne i32 %21, 0
  br i1 %22, label %23, label %24

23:                                               ; preds = %4
  br label %25

24:                                               ; preds = %4
  br label %25

25:                                               ; preds = %24, %23
  %26 = phi ptr [ null, %23 ], [ %9, %24 ]
  %27 = call ptr @PyUnicode_DecodeUTF8Stateful(ptr noundef %16, i64 noundef %19, ptr noundef %20, ptr noundef %26)
  store ptr %27, ptr %10, align 8, !tbaa !4
  %28 = load ptr, ptr %10, align 8, !tbaa !4
  %29 = load i64, ptr %9, align 8, !tbaa !11
  %30 = call ptr @codec_tuple(ptr noundef %28, i64 noundef %29)
  call void @llvm.lifetime.end.p0(i64 8, ptr %10) #6
  call void @llvm.lifetime.end.p0(i64 8, ptr %9) #6
  ret ptr %30
}

; Function Attrs: inlinehint nounwind uwtable
define internal i32 @PyType_HasFeature(ptr noundef %0, i64 noundef %1) #3 {
  %3 = alloca ptr, align 8
  %4 = alloca i64, align 8
  %5 = alloca i64, align 8
  store ptr %0, ptr %3, align 8, !tbaa !20
  store i64 %1, ptr %4, align 8, !tbaa !11
  call void @llvm.lifetime.start.p0(i64 8, ptr %5) #6
  %6 = load ptr, ptr %3, align 8, !tbaa !20
  %7 = getelementptr inbounds nuw %struct._typeobject, ptr %6, i32 0, i32 19
  %8 = load i64, ptr %7, align 8, !tbaa !22
  store i64 %8, ptr %5, align 8, !tbaa !11
  %9 = load i64, ptr %5, align 8, !tbaa !11
  %10 = load i64, ptr %4, align 8, !tbaa !11
  %11 = and i64 %9, %10
  %12 = icmp ne i64 %11, 0
  %13 = zext i1 %12 to i32
  call void @llvm.lifetime.end.p0(i64 8, ptr %5) #6
  ret i32 %13
}

; Function Attrs: inlinehint nounwind uwtable
define internal ptr @_Py_TYPE(ptr noundef %0) #3 {
  %2 = alloca ptr, align 8
  store ptr %0, ptr %2, align 8, !tbaa !4
  %3 = load ptr, ptr %2, align 8, !tbaa !4
  %4 = getelementptr inbounds nuw %struct._object, ptr %3, i32 0, i32 1
  %5 = load ptr, ptr %4, align 8, !tbaa !30
  ret ptr %5
}

; Function Attrs: nounwind uwtable
define internal ptr @_codecs_utf_8_decode(ptr noundef %0, ptr noundef %1, i64 noundef %2) #0 {
  %4 = alloca ptr, align 8
  %5 = alloca ptr, align 8
  %6 = alloca ptr, align 8
  %7 = alloca i64, align 8
  %8 = alloca ptr, align 8
  %9 = alloca %struct.Py_buffer, align 8
  %10 = alloca ptr, align 8
  %11 = alloca i32, align 4
  %12 = alloca i64, align 8
  %13 = alloca i32, align 4
  store ptr %0, ptr %5, align 8, !tbaa !4
  store ptr %1, ptr %6, align 8, !tbaa !13
  store i64 %2, ptr %7, align 8, !tbaa !11
  call void @llvm.lifetime.start.p0(i64 8, ptr %8) #6
  store ptr null, ptr %8, align 8, !tbaa !4
  call void @llvm.lifetime.start.p0(i64 80, ptr %9) #6
  call void @llvm.memset.p0.i64(ptr align 8 %9, i8 0, i64 80, i1 false)
  call void @llvm.lifetime.start.p0(i64 8, ptr %10) #6
  store ptr null, ptr %10, align 8, !tbaa !9
  call void @llvm.lifetime.start.p0(i64 4, ptr %11) #6
  store i32 0, ptr %11, align 4, !tbaa !19
  %14 = load i64, ptr %7, align 8, !tbaa !11
  %15 = icmp sle i64 1, %14
  br i1 %15, label %16, label %19

16:                                               ; preds = %3
  %17 = load i64, ptr %7, align 8, !tbaa !11
  %18 = icmp sle i64 %17, 3
  br i1 %18, label %24, label %19

19:                                               ; preds = %16, %3
  %20 = load i64, ptr %7, align 8, !tbaa !11
  %21 = call i32 @_PyArg_CheckPositional(ptr noundef @.str.9, i64 noundef %20, i64 noundef 1, i64 noundef 3)
  %22 = icmp ne i32 %21, 0
  br i1 %22, label %24, label %23

23:                                               ; preds = %19
  br label %90

24:                                               ; preds = %19, %16
  %25 = load ptr, ptr %6, align 8, !tbaa !13
  %26 = getelementptr ptr, ptr %25, i64 0
  %27 = load ptr, ptr %26, align 8, !tbaa !4
  %28 = call i32 @PyObject_GetBuffer(ptr noundef %27, ptr noundef %9, i32 noundef 0)
  %29 = icmp ne i32 %28, 0
  br i1 %29, label %30, label %31

30:                                               ; preds = %24
  br label %90

31:                                               ; preds = %24
  %32 = load i64, ptr %7, align 8, !tbaa !11
  %33 = icmp slt i64 %32, 2
  br i1 %33, label %34, label %35

34:                                               ; preds = %31
  br label %85

35:                                               ; preds = %31
  %36 = load ptr, ptr %6, align 8, !tbaa !13
  %37 = getelementptr ptr, ptr %36, i64 1
  %38 = load ptr, ptr %37, align 8, !tbaa !4
  %39 = icmp eq ptr %38, @_Py_NoneStruct
  br i1 %39, label %40, label %41

40:                                               ; preds = %35
  store ptr null, ptr %10, align 8, !tbaa !9
  br label %72

41:                                               ; preds = %35
  %42 = load ptr, ptr %6, align 8, !tbaa !13
  %43 = getelementptr ptr, ptr %42, i64 1
  %44 = load ptr, ptr %43, align 8, !tbaa !4
  %45 = call ptr @_Py_TYPE(ptr noundef %44)
  %46 = call i32 @PyType_HasFeature(ptr noundef %45, i64 noundef 268435456)
  %47 = icmp ne i32 %46, 0
  br i1 %47, label %48, label %67

48:                                               ; preds = %41
  call void @llvm.lifetime.start.p0(i64 8, ptr %12) #6
  %49 = load ptr, ptr %6, align 8, !tbaa !13
  %50 = getelementptr ptr, ptr %49, i64 1
  %51 = load ptr, ptr %50, align 8, !tbaa !4
  %52 = call ptr @PyUnicode_AsUTF8AndSize(ptr noundef %51, ptr noundef %12)
  store ptr %52, ptr %10, align 8, !tbaa !9
  %53 = load ptr, ptr %10, align 8, !tbaa !9
  %54 = icmp eq ptr %53, null
  br i1 %54, label %55, label %56

55:                                               ; preds = %48
  store i32 2, ptr %13, align 4
  br label %64

56:                                               ; preds = %48
  %57 = load ptr, ptr %10, align 8, !tbaa !9
  %58 = call i64 @strlen(ptr noundef %57) #7
  %59 = load i64, ptr %12, align 8, !tbaa !11
  %60 = icmp ne i64 %58, %59
  br i1 %60, label %61, label %63

61:                                               ; preds = %56
  %62 = load ptr, ptr @PyExc_ValueError, align 8, !tbaa !4
  call void @PyErr_SetString(ptr noundef %62, ptr noundef @.str.44)
  store i32 2, ptr %13, align 4
  br label %64

63:                                               ; preds = %56
  store i32 0, ptr %13, align 4
  br label %64

64:                                               ; preds = %61, %55, %63
  call void @llvm.lifetime.end.p0(i64 8, ptr %12) #6
  %65 = load i32, ptr %13, align 4
  switch i32 %65, label %97 [
    i32 0, label %66
    i32 2, label %90
  ]

66:                                               ; preds = %64
  br label %71

67:                                               ; preds = %41
  %68 = load ptr, ptr %6, align 8, !tbaa !13
  %69 = getelementptr ptr, ptr %68, i64 1
  %70 = load ptr, ptr %69, align 8, !tbaa !4
  call void @_PyArg_BadArgument(ptr noundef @.str.9, ptr noundef @.str.52, ptr noundef @.str.53, ptr noundef %70)
  br label %90

71:                                               ; preds = %66
  br label %72

72:                                               ; preds = %71, %40
  %73 = load i64, ptr %7, align 8, !tbaa !11
  %74 = icmp slt i64 %73, 3
  br i1 %74, label %75, label %76

75:                                               ; preds = %72
  br label %85

76:                                               ; preds = %72
  %77 = load ptr, ptr %6, align 8, !tbaa !13
  %78 = getelementptr ptr, ptr %77, i64 2
  %79 = load ptr, ptr %78, align 8, !tbaa !4
  %80 = call i32 @PyObject_IsTrue(ptr noundef %79)
  store i32 %80, ptr %11, align 4, !tbaa !19
  %81 = load i32, ptr %11, align 4, !tbaa !19
  %82 = icmp slt i32 %81, 0
  br i1 %82, label %83, label %84

83:                                               ; preds = %76
  br label %90

84:                                               ; preds = %76
  br label %85

85:                                               ; preds = %84, %75, %34
  %86 = load ptr, ptr %5, align 8, !tbaa !4
  %87 = load ptr, ptr %10, align 8, !tbaa !9
  %88 = load i32, ptr %11, align 4, !tbaa !19
  %89 = call ptr @_codecs_utf_8_decode_impl(ptr noundef %86, ptr noundef %9, ptr noundef %87, i32 noundef %88)
  store ptr %89, ptr %8, align 8, !tbaa !4
  br label %90

90:                                               ; preds = %85, %64, %83, %67, %30, %23
  %91 = getelementptr inbounds nuw %struct.Py_buffer, ptr %9, i32 0, i32 1
  %92 = load ptr, ptr %91, align 8, !tbaa !15
  %93 = icmp ne ptr %92, null
  br i1 %93, label %94, label %95

94:                                               ; preds = %90
  call void @PyBuffer_Release(ptr noundef %9)
  br label %95

95:                                               ; preds = %94, %90
  %96 = load ptr, ptr %8, align 8, !tbaa !4
  store ptr %96, ptr %4, align 8
  store i32 1, ptr %13, align 4
  br label %97

97:                                               ; preds = %95, %64
  call void @llvm.lifetime.end.p0(i64 4, ptr %11) #6
  call void @llvm.lifetime.end.p0(i64 8, ptr %10) #6
  call void @llvm.lifetime.end.p0(i64 80, ptr %9) #6
  call void @llvm.lifetime.end.p0(i64 8, ptr %8) #6
  %98 = load ptr, ptr %4, align 8
  ret ptr %98
}